target datalayout = "e-m:e-p270:32:32-p271:32:32-p272:64:64-i64:64-i128:128-f80:128-n8:16:32:64-S128"
target triple = "x86_64-pc-linux-gnu"

@pvfs_desegment = internal global i8 1, align 1

; Function Attrs: null_pointer_is_valid sspstrong uwtable
define internal i32 @dissect_pvfs(ptr noundef %0, ptr noundef %1, ptr noundef %2, ptr noundef %3) #0 {
  %5 = alloca i32, align 4
  %6 = alloca ptr, align 8
  %7 = alloca ptr, align 8
  %8 = alloca ptr, align 8
  %9 = alloca ptr, align 8
  %10 = alloca i32, align 4
  %11 = alloca i32, align 4
  %12 = alloca i64, align 8
  %13 = alloca i32, align 4
  store ptr %0, ptr %6, align 8
  store ptr %1, ptr %7, align 8
  store ptr %2, ptr %8, align 8
  store ptr %3, ptr %9, align 8
  call void @llvm.lifetime.start.p0(i64 4, ptr %10) #10
  call void @llvm.lifetime.start.p0(i64 4, ptr %11) #10
  call void @llvm.lifetime.start.p0(i64 8, ptr %12) #10
  %14 = load ptr, ptr %6, align 8
  %15 = call i32 @tvb_reported_length(ptr noundef %14)
  %16 = icmp ult i32 %15, 24
  br i1 %16, label %17, label %18

17:                                               ; preds = %4
  store i32 0, ptr %5, align 4
  store i32 1, ptr %13, align 4
  br label %56

18:                                               ; preds = %4
  %19 = load ptr, ptr %6, align 8
  %20 = call i32 @tvb_get_letohl(ptr noundef %19, i32 noundef 0)
  store i32 %20, ptr %10, align 4
  %21 = load i32, ptr %10, align 4
  %22 = icmp ne i32 %21, 51903
  br i1 %22, label %23, label %24

23:                                               ; preds = %18
  store i32 0, ptr %5, align 4
  store i32 1, ptr %13, align 4
  br label %56

24:                                               ; preds = %18
  %25 = load ptr, ptr %6, align 8
  %26 = call i32 @tvb_get_letohl(ptr noundef %25, i32 noundef 4)
  store i32 %26, ptr %11, align 4
  %27 = load i32, ptr %11, align 4
  switch i32 %27, label %29 [
    i32 1, label %28
    i32 2, label %28
    i32 4, label %28
    i32 8, label %28
  ]

28:                                               ; preds = %24, %24, %24, %24
  br label %30

29:                                               ; preds = %24
  store i32 0, ptr %5, align 4
  store i32 1, ptr %13, align 4
  br label %56

30:                                               ; preds = %28
  %31 = load ptr, ptr %6, align 8
  %32 = call i32 @tvb_get_letohl(ptr noundef %31, i32 noundef 20)
  %33 = zext i32 %32 to i64
  store i64 %33, ptr %12, align 8
  %34 = load i64, ptr %12, align 8
  %35 = shl i64 %34, 32
  store i64 %35, ptr %12, align 8
  %36 = load ptr, ptr %6, align 8
  %37 = call i32 @tvb_get_letohl(ptr noundef %36, i32 noundef 16)
  %38 = zext i32 %37 to i64
  %39 = load i64, ptr %12, align 8
  %40 = or i64 %39, %38
  store i64 %40, ptr %12, align 8
  %41 = load i64, ptr %12, align 8
  %42 = icmp ugt i64 %41, 1000000
  br i1 %42, label %46, label %43

43:                                               ; preds = %30
  %44 = load i64, ptr %12, align 8
  %45 = icmp eq i64 %44, 0
  br i1 %45, label %46, label %47

46:                                               ; preds = %43, %30
  store i32 0, ptr %5, align 4
  store i32 1, ptr %13, align 4
  br label %56

47:                                               ; preds = %43
  %48 = load ptr, ptr %6, align 8
  %49 = load ptr, ptr %7, align 8
  %50 = load ptr, ptr %8, align 8
  %51 = load i8, ptr @pvfs_desegment, align 1, !range !6, !noundef !7
  %52 = trunc i8 %51 to i1
  %53 = load ptr, ptr %9, align 8
  call void @tcp_dissect_pdus(ptr noundef %48, ptr noundef %49, ptr noundef %50, i1 noundef zeroext %52, i32 noundef 24, ptr noundef @get_pvfs_pdu_len, ptr noundef @dissect_pvfs_pdu, ptr noundef %53)
  %54 = load ptr, ptr %6, align 8
  %55 = call i32 @tvb_reported_length(ptr noundef %54)
  store i32 %55, ptr %5, align 4
  store i32 1, ptr %13, align 4
  br label %56

56:                                               ; preds = %47, %46, %29, %23, %17
  call void @llvm.lifetime.end.p0(i64 8, ptr %12) #10
  call void @llvm.lifetime.end.p0(i64 4, ptr %11) #10
  call void @llvm.lifetime.end.p0(i64 4, ptr %10) #10
  %57 = load i32, ptr %5, align 4
  ret i32 %57
}