; Function Attrs: null_pointer_is_valid sspstrong uwtable
define internal i32 @dissect_pvfs(ptr noundef %0, ptr noundef %1, ptr noundef %2, ptr noundef %3) #0 {
  %5 = tail call i32 @tvb_reported_length(ptr noundef %0)
  %6 = icmp ult i32 %5, 24
  br i1 %6, label %23, label %7

7:                                                ; preds = %4
  %8 = tail call i32 @tvb_get_letohl(ptr noundef %0, i32 noundef 0)
  %.not = icmp eq i32 %8, 51903
  br i1 %.not, label %9, label %23

9:                                                ; preds = %7
  %10 = tail call i32 @tvb_get_letohl(ptr noundef %0, i32 noundef 4)
  switch i32 %10, label %23 [
    i32 1, label %11
    i32 2, label %11
    i32 4, label %11
    i32 8, label %11
  ]

11:                                               ; preds = %9, %9, %9, %9
  %12 = tail call i32 @tvb_get_letohl(ptr noundef %0, i32 noundef 20)
  %13 = zext i32 %12 to i64
  %14 = shl nuw i64 %13, 32
  %15 = tail call i32 @tvb_get_letohl(ptr noundef %0, i32 noundef 16)
  %16 = zext i32 %15 to i64
  %17 = add nsw i64 %16, -1000001
  %18 = add i64 %17, %14
  %or.cond = icmp ult i64 %18, -1000000
  br i1 %or.cond, label %23, label %19

19:                                               ; preds = %11
  %20 = load i8, ptr @pvfs_desegment, align 1, !range !6, !noundef !7
  %21 = trunc nuw i8 %20 to i1
  tail call void @tcp_dissect_pdus(ptr noundef %0, ptr noundef %1, ptr noundef %2, i1 noundef zeroext %21, i32 noundef 24, ptr noundef nonnull @get_pvfs_pdu_len, ptr noundef nonnull @dissect_pvfs_pdu, ptr noundef %3)
  %22 = tail call i32 @tvb_reported_length(ptr noundef %0)
  br label %23

23:                                               ; preds = %11, %9, %7, %4, %19
  %.0 = phi i32 [ %22, %19 ], [ 0, %4 ], [ 0, %7 ], [ 0, %9 ], [ 0, %11 ]
  ret i32 %.0
}